; Function Attrs: nounwind uwtable
define range(i32 0, 2) i32 @BN_are_coprime(ptr noundef %0, ptr noundef %1, ptr noundef %2) local_unnamed_addr #0 {
  tail call void @BN_CTX_start(ptr noundef %2) #4
  %4 = tail call ptr @BN_CTX_get(ptr noundef %2) #4
  %5 = icmp eq ptr %4, null
  br i1 %5, label %12, label %6

6:                                                ; preds = %3
  %7 = tail call i32 @ERR_set_mark() #4
  tail call void @BN_set_flags(ptr noundef %0, i32 noundef 4) #4
  %8 = tail call ptr @BN_mod_inverse(ptr noundef nonnull %4, ptr noundef %0, ptr noundef %1, ptr noundef %2)
  %9 = icmp ne ptr %8, null
  %10 = zext i1 %9 to i32
  %11 = tail call i32 @ERR_pop_to_mark() #4
  br label %12

12:                                               ; preds = %3, %6
  %.0 = phi i32 [ 0, %3 ], [ %10, %6 ]
  tail call void @BN_CTX_end(ptr noundef %2) #4
  ret i32 %.0
}